target datalayout = "e-m:e-p270:32:32-p271:32:32-p272:64:64-i64:64-i128:128-f80:128-n8:16:32:64-S128"
target triple = "x86_64-unknown-linux-gnu"

%"class.std::unique_ptr.2" = type { %"struct.std::__uniq_ptr_data.3" }
%"struct.std::__uniq_ptr_data.3" = type { %"class.std::__uniq_ptr_impl.4" }
%"class.std::__uniq_ptr_impl.4" = type { %"class.std::tuple.5" }
%"class.std::tuple.5" = type { %"struct.std::_Tuple_impl.6" }
%"struct.std::_Tuple_impl.6" = type { %"struct.std::_Head_base.9" }
%"struct.std::_Head_base.9" = type { ptr }
%"class.facebook::hermes::tracing::TracingRuntime" = type <{ %"class.facebook::jsi::RuntimeDecorator", %"class.std::unique_ptr", %"class.facebook::hermes::tracing::SynthTrace", %"class.std::deque", %"class.std::chrono::time_point", i32, [4 x i8] }>
%"class.facebook::jsi::RuntimeDecorator" = type { %"class.facebook::jsi::Runtime", %"class.facebook::jsi::Instrumentation", ptr }
%"class.facebook::jsi::Runtime" = type { ptr }
%"class.facebook::jsi::Instrumentation" = type { ptr }
%"class.std::unique_ptr" = type { %"struct.std::__uniq_ptr_data" }
%"struct.std::__uniq_ptr_data" = type { %"class.std::__uniq_ptr_impl" }
%"class.std::__uniq_ptr_impl" = type { %"class.std::tuple" }
%"class.std::tuple" = type { %"struct.std::_Tuple_impl" }
%"struct.std::_Tuple_impl" = type { %"struct.std::_Head_base.1" }
%"struct.std::_Head_base.1" = type { ptr }
%"class.facebook::hermes::tracing::SynthTrace" = type { %"class.std::unique_ptr.2", %"class.std::unique_ptr.10", %"class.std::vector", i64 }
%"class.std::unique_ptr.10" = type { %"struct.std::__uniq_ptr_data.11" }
%"struct.std::__uniq_ptr_data.11" = type { %"class.std::__uniq_ptr_impl.12" }
%"class.std::__uniq_ptr_impl.12" = type { %"class.std::tuple.13" }
%"class.std::tuple.13" = type { %"struct.std::_Tuple_impl.14" }
%"struct.std::_Tuple_impl.14" = type { %"struct.std::_Head_base.17" }
%"struct.std::_Head_base.17" = type { ptr }
%"class.std::vector" = type { %"struct.std::_Vector_base" }
%"struct.std::_Vector_base" = type { %"struct.std::_Vector_base<std::unique_ptr<facebook::hermes::tracing::SynthTrace::Record>, std::allocator<std::unique_ptr<facebook::hermes::tracing::SynthTrace::Record>>>::_Vector_impl" }
%"struct.std::_Vector_base<std::unique_ptr<facebook::hermes::tracing::SynthTrace::Record>, std::allocator<std::unique_ptr<facebook::hermes::tracing::SynthTrace::Record>>>::_Vector_impl" = type { %"struct.std::_Vector_base<std::unique_ptr<facebook::hermes::tracing::SynthTrace::Record>, std::allocator<std::unique_ptr<facebook::hermes::tracing::SynthTrace::Record>>>::_Vector_impl_data" }
%"struct.std::_Vector_base<std::unique_ptr<facebook::hermes::tracing::SynthTrace::Record>, std::allocator<std::unique_ptr<facebook::hermes::tracing::SynthTrace::Record>>>::_Vector_impl_data" = type { ptr, ptr, ptr }
%"class.std::deque" = type { %"class.std::_Deque_base" }
%"class.std::_Deque_base" = type { %"struct.std::_Deque_base<facebook::jsi::Function, std::allocator<facebook::jsi::Function>>::_Deque_impl" }
%"struct.std::_Deque_base<facebook::jsi::Function, std::allocator<facebook::jsi::Function>>::_Deque_impl" = type { %"struct.std::_Deque_base<facebook::jsi::Function, std::allocator<facebook::jsi::Function>>::_Deque_impl_data" }
%"struct.std::_Deque_base<facebook::jsi::Function, std::allocator<facebook::jsi::Function>>::_Deque_impl_data" = type { ptr, i64, %"struct.std::_Deque_iterator", %"struct.std::_Deque_iterator" }
%"struct.std::_Deque_iterator" = type { ptr, ptr, ptr, ptr }
%"class.std::chrono::time_point" = type { %"class.std::chrono::duration" }
%"class.std::chrono::duration" = type { i64 }
%"class.facebook::jsi::Value" = type { i32, %"union.facebook::jsi::Value::Data" }
%"union.facebook::jsi::Value::Data" = type { double }
%"class.std::chrono::duration.37" = type { i64 }
%"class.facebook::hermes::tracing::SynthTrace::TraceValue" = type { i32, %union.anon.38 }
%union.anon.38 = type { double }

; Function Attrs: mustprogress nounwind uwtable
define linkonce_odr void @_ZNSt6chrono8durationIlSt5ratioILl1ELl1000EEEC2IlvEERKT_(ptr noundef nonnull align 8 dereferenceable(8) %this, ptr noundef nonnull align 8 dereferenceable(8) %__rep) unnamed_addr #1 comdat align 2 {
entry:
  %this.addr = alloca ptr, align 8
  %__rep.addr = alloca ptr, align 8
  store ptr %this, ptr %this.addr, align 8
  store ptr %__rep, ptr %__rep.addr, align 8
  %this1 = load ptr, ptr %this.addr, align 8
  %__r = getelementptr inbounds %"class.std::chrono::duration.37", ptr %this1, i32 0, i32 0
  %0 = load ptr, ptr %__rep.addr, align 8
  %1 = load i64, ptr %0, align 8
  store i64 %1, ptr %__r, align 8
  ret void
}

; Function Attrs: mustprogress nounwind uwtable
define linkonce_odr void @_ZNSt6chrono8durationIlSt5ratioILl1ELl1000000000EEEC2IlvEERKT_(ptr noundef nonnull align 8 dereferenceable(8) %this, ptr noundef nonnull align 8 dereferenceable(8) %__rep) unnamed_addr #1 comdat align 2 {
entry:
  %this.addr = alloca ptr, align 8
  %__rep.addr = alloca ptr, align 8
  store ptr %this, ptr %this.addr, align 8
  store ptr %__rep, ptr %__rep.addr, align 8
  %this1 = load ptr, ptr %this.addr, align 8
  %__r = getelementptr inbounds %"class.std::chrono::duration", ptr %this1, i32 0, i32 0
  %0 = load ptr, ptr %__rep.addr, align 8
  %1 = load i64, ptr %0, align 8
  store i64 %1, ptr %__r, align 8
  ret void
}

; Function Attrs: mustprogress nounwind uwtable
define linkonce_odr noundef i64 @_ZNKSt6chrono8durationIlSt5ratioILl1ELl1000000000EEE5countEv(ptr noundef nonnull align 8 dereferenceable(8) %this) #1 comdat align 2 {
entry:
  %this.addr = alloca ptr, align 8
  store ptr %this, ptr %this.addr, align 8
  %this1 = load ptr, ptr %this.addr, align 8
  %__r = getelementptr inbounds %"class.std::chrono::duration", ptr %this1, i32 0, i32 0
  %0 = load i64, ptr %__r, align 8
  ret i64 %0
}

; Function Attrs: mustprogress uwtable
define linkonce_odr i64 @_ZNSt6chrono20__duration_cast_implINS_8durationIlSt5ratioILl1ELl1000EEEES2_ILl1ELl1000000EElLb1ELb0EE6__castIlS2_ILl1ELl1000000000EEEES4_RKNS1_IT_T0_EE(ptr noundef nonnull align 8 dereferenceable(8) %__d) #0 comdat align 2 {
entry:
  %retval = alloca %"class.std::chrono::duration.37", align 8
  %__d.addr = alloca ptr, align 8
  %ref.tmp = alloca i64, align 8
  store ptr %__d, ptr %__d.addr, align 8
  %0 = load ptr, ptr %__d.addr, align 8
  %call = call noundef i64 @_ZNKSt6chrono8durationIlSt5ratioILl1ELl1000000000EEE5countEv(ptr noundef nonnull align 8 dereferenceable(8) %0)
  %div = sdiv i64 %call, 1000000
  store i64 %div, ptr %ref.tmp, align 8
  call void @_ZNSt6chrono8durationIlSt5ratioILl1ELl1000EEEC2IlvEERKT_(ptr noundef nonnull align 8 dereferenceable(8) %retval, ptr noundef nonnull align 8 dereferenceable(8) %ref.tmp)
  %coerce.dive = getelementptr inbounds %"class.std::chrono::duration.37", ptr %retval, i32 0, i32 0
  %1 = load i64, ptr %coerce.dive, align 8
  ret i64 %1
}

; Function Attrs: mustprogress uwtable
define linkonce_odr i64 @_ZNSt6chronomiIlSt5ratioILl1ELl1000000000EElS2_EENSt11common_typeIJNS_8durationIT_T0_EENS4_IT1_T2_EEEE4typeERKS7_RKSA_(ptr noundef nonnull align 8 dereferenceable(8) %__lhs, ptr noundef nonnull align 8 dereferenceable(8) %__rhs) #0 comdat {
entry:
  %retval = alloca %"class.std::chrono::duration", align 8
  %__lhs.addr = alloca ptr, align 8
  %__rhs.addr = alloca ptr, align 8
  %ref.tmp = alloca i64, align 8
  %ref.tmp1 = alloca %"class.std::chrono::duration", align 8
  %ref.tmp2 = alloca %"class.std::chrono::duration", align 8
  store ptr %__lhs, ptr %__lhs.addr, align 8
  store ptr %__rhs, ptr %__rhs.addr, align 8
  %0 = load ptr, ptr %__lhs.addr, align 8
  call void @llvm.memcpy.p0.p0.i64(ptr align 8 %ref.tmp1, ptr align 8 %0, i64 8, i1 false)
  %call = call noundef i64 @_ZNKSt6chrono8durationIlSt5ratioILl1ELl1000000000EEE5countEv(ptr noundef nonnull align 8 dereferenceable(8) %ref.tmp1)
  %1 = load ptr, ptr %__rhs.addr, align 8
  call void @llvm.memcpy.p0.p0.i64(ptr align 8 %ref.tmp2, ptr align 8 %1, i64 8, i1 false)
  %call3 = call noundef i64 @_ZNKSt6chrono8durationIlSt5ratioILl1ELl1000000000EEE5countEv(ptr noundef nonnull align 8 dereferenceable(8) %ref.tmp2)
  %sub = sub nsw i64 %call, %call3
  store i64 %sub, ptr %ref.tmp, align 8
  call void @_ZNSt6chrono8durationIlSt5ratioILl1ELl1000000000EEEC2IlvEERKT_(ptr noundef nonnull align 8 dereferenceable(8) %retval, ptr noundef nonnull align 8 dereferenceable(8) %ref.tmp)
  %coerce.dive = getelementptr inbounds %"class.std::chrono::duration", ptr %retval, i32 0, i32 0
  %2 = load i64, ptr %coerce.dive, align 8
  ret i64 %2
}

; Function Attrs: mustprogress nounwind uwtable
define linkonce_odr i64 @_ZNKSt6chrono10time_pointINS_3_V212steady_clockENS_8durationIlSt5ratioILl1ELl1000000000EEEEE16time_since_epochEv(ptr noundef nonnull align 8 dereferenceable(8) %this) #1 comdat align 2 {
entry:
  %retval = alloca %"class.std::chrono::duration", align 8
  %this.addr = alloca ptr, align 8
  store ptr %this, ptr %this.addr, align 8
  %this1 = load ptr, ptr %this.addr, align 8
  %__d = getelementptr inbounds %"class.std::chrono::time_point", ptr %this1, i32 0, i32 0
  call void @llvm.memcpy.p0.p0.i64(ptr align 8 %retval, ptr align 8 %__d, i64 8, i1 false)
  %coerce.dive = getelementptr inbounds %"class.std::chrono::duration", ptr %retval, i32 0, i32 0
  %0 = load i64, ptr %coerce.dive, align 8
  ret i64 %0
}

; Function Attrs: mustprogress uwtable
define linkonce_odr i64 @_ZNSt6chrono13duration_castINS_8durationIlSt5ratioILl1ELl1000EEEElS2_ILl1ELl1000000000EEEENSt9enable_ifIXsr13__is_durationIT_EE5valueES7_E4typeERKNS1_IT0_T1_EE(ptr noundef nonnull align 8 dereferenceable(8) %__d) #0 comdat {
entry:
  %retval = alloca %"class.std::chrono::duration.37", align 8
  %__d.addr = alloca ptr, align 8
  store ptr %__d, ptr %__d.addr, align 8
  %0 = load ptr, ptr %__d.addr, align 8
  %call = call i64 @_ZNSt6chrono20__duration_cast_implINS_8durationIlSt5ratioILl1ELl1000EEEES2_ILl1ELl1000000EElLb1ELb0EE6__castIlS2_ILl1ELl1000000000EEEES4_RKNS1_IT_T0_EE(ptr noundef nonnull align 8 dereferenceable(8) %0)
  %coerce.dive = getelementptr inbounds %"class.std::chrono::duration.37", ptr %retval, i32 0, i32 0
  store i64 %call, ptr %coerce.dive, align 8
  %coerce.dive1 = getelementptr inbounds %"class.std::chrono::duration.37", ptr %retval, i32 0, i32 0
  %1 = load i64, ptr %coerce.dive1, align 8
  ret i64 %1
}

; Function Attrs: mustprogress uwtable
define linkonce_odr i64 @_ZNSt6chronomiINS_3_V212steady_clockENS_8durationIlSt5ratioILl1ELl1000000000EEEES6_EENSt11common_typeIJT0_T1_EE4typeERKNS_10time_pointIT_S8_EERKNSC_ISD_S9_EE(ptr noundef nonnull align 8 dereferenceable(8) %__lhs, ptr noundef nonnull align 8 dereferenceable(8) %__rhs) #0 comdat {
entry:
  %retval = alloca %"class.std::chrono::duration", align 8
  %__lhs.addr = alloca ptr, align 8
  %__rhs.addr = alloca ptr, align 8
  %ref.tmp = alloca %"class.std::chrono::duration", align 8
  %ref.tmp1 = alloca %"class.std::chrono::duration", align 8
  store ptr %__lhs, ptr %__lhs.addr, align 8
  store ptr %__rhs, ptr %__rhs.addr, align 8
  %0 = load ptr, ptr %__lhs.addr, align 8
  %call = call i64 @_ZNKSt6chrono10time_pointINS_3_V212steady_clockENS_8durationIlSt5ratioILl1ELl1000000000EEEEE16time_since_epochEv(ptr noundef nonnull align 8 dereferenceable(8) %0)
  %coerce.dive = getelementptr inbounds %"class.std::chrono::duration", ptr %ref.tmp, i32 0, i32 0
  store i64 %call, ptr %coerce.dive, align 8
  %1 = load ptr, ptr %__rhs.addr, align 8
  %call2 = call i64 @_ZNKSt6chrono10time_pointINS_3_V212steady_clockENS_8durationIlSt5ratioILl1ELl1000000000EEEEE16time_since_epochEv(ptr noundef nonnull align 8 dereferenceable(8) %1)
  %coerce.dive3 = getelementptr inbounds %"class.std::chrono::duration", ptr %ref.tmp1, i32 0, i32 0
  store i64 %call2, ptr %coerce.dive3, align 8
  %call4 = call i64 @_ZNSt6chronomiIlSt5ratioILl1ELl1000000000EElS2_EENSt11common_typeIJNS_8durationIT_T0_EENS4_IT1_T2_EEEE4typeERKS7_RKSA_(ptr noundef nonnull align 8 dereferenceable(8) %ref.tmp, ptr noundef nonnull align 8 dereferenceable(8) %ref.tmp1)
  %coerce.dive5 = getelementptr inbounds %"class.std::chrono::duration", ptr %retval, i32 0, i32 0
  store i64 %call4, ptr %coerce.dive5, align 8
  %coerce.dive6 = getelementptr inbounds %"class.std::chrono::duration", ptr %retval, i32 0, i32 0
  %2 = load i64, ptr %coerce.dive6, align 8
  ret i64 %2
}

; Function Attrs: mustprogress uwtable
define hidden i64 @_ZNK8facebook6hermes7tracing14TracingRuntime17getTimeSinceStartEv(ptr noundef nonnull align 8 dereferenceable(172) %this) #0 align 2 {
entry:
  %retval = alloca %"class.std::chrono::duration.37", align 8
  %this.addr = alloca ptr, align 8
  %ref.tmp = alloca %"class.std::chrono::duration", align 8
  %ref.tmp2 = alloca %"class.std::chrono::time_point", align 8
  store ptr %this, ptr %this.addr, align 8
  %this1 = load ptr, ptr %this.addr, align 8
  %call = call i64 @_ZNSt6chrono3_V212steady_clock3nowEv() #17
  %coerce.dive = getelementptr inbounds %"class.std::chrono::time_point", ptr %ref.tmp2, i32 0, i32 0
  %coerce.dive3 = getelementptr inbounds %"class.std::chrono::duration", ptr %coerce.dive, i32 0, i32 0
  store i64 %call, ptr %coerce.dive3, align 8
  %startTime_ = getelementptr inbounds %"class.facebook::hermes::tracing::TracingRuntime", ptr %this1, i32 0, i32 4
  %call4 = call i64 @_ZNSt6chronomiINS_3_V212steady_clockENS_8durationIlSt5ratioILl1ELl1000000000EEEES6_EENSt11common_typeIJT0_T1_EE4typeERKNS_10time_pointIT_S8_EERKNSC_ISD_S9_EE(ptr noundef nonnull align 8 dereferenceable(8) %ref.tmp2, ptr noundef nonnull align 8 dereferenceable(8) %startTime_)
  %coerce.dive5 = getelementptr inbounds %"class.std::chrono::duration", ptr %ref.tmp, i32 0, i32 0
  store i64 %call4, ptr %coerce.dive5, align 8
  %call6 = call i64 @_ZNSt6chrono13duration_castINS_8durationIlSt5ratioILl1ELl1000EEEElS2_ILl1ELl1000000000EEEENSt9enable_ifIXsr13__is_durationIT_EE5valueES7_E4typeERKNS1_IT0_T1_EE(ptr noundef nonnull align 8 dereferenceable(8) %ref.tmp)
  %coerce.dive7 = getelementptr inbounds %"class.std::chrono::duration.37", ptr %retval, i32 0, i32 0
  store i64 %call6, ptr %coerce.dive7, align 8
  %coerce.dive8 = getelementptr inbounds %"class.std::chrono::duration.37", ptr %retval, i32 0, i32 0
  %0 = load i64, ptr %coerce.dive8, align 8
  ret i64 %0
}

; Function Attrs: mustprogress uwtable
define linkonce_odr hidden void @_ZN8facebook3jsi16RuntimeDecoratorINS0_7RuntimeES2_E11getPropertyERKNS0_6ObjectERKNS0_10PropNameIDE(ptr noalias sret(%"class.facebook::jsi::Value") align 8 %agg.result, ptr noundef nonnull align 8 dereferenceable(24) %this, ptr noundef nonnull align 8 dereferenceable(8) %o, ptr noundef nonnull align 8 dereferenceable(8) %name) unnamed_addr #0 comdat align 2 {
entry:
  %result.ptr = alloca ptr, align 8
  %this.addr = alloca ptr, align 8
  %o.addr = alloca ptr, align 8
  %name.addr = alloca ptr, align 8
  store ptr %agg.result, ptr %result.ptr, align 8
  store ptr %this, ptr %this.addr, align 8
  store ptr %o, ptr %o.addr, align 8
  store ptr %name, ptr %name.addr, align 8
  %this1 = load ptr, ptr %this.addr, align 8
  %plain_ = getelementptr inbounds %"class.facebook::jsi::RuntimeDecorator", ptr %this1, i32 0, i32 2
  %0 = load ptr, ptr %plain_, align 8
  %1 = load ptr, ptr %o.addr, align 8
  %2 = load ptr, ptr %name.addr, align 8
  %vtable = load ptr, ptr %0, align 8
  %vfn = getelementptr inbounds ptr, ptr %vtable, i64 39
  %3 = load ptr, ptr %vfn, align 8
  call void %3(ptr sret(%"class.facebook::jsi::Value") align 8 %agg.result, ptr noundef nonnull align 8 dereferenceable(8) %0, ptr noundef nonnull align 8 dereferenceable(8) %1, ptr noundef nonnull align 8 dereferenceable(8) %2)
  ret void
}

; Function Attrs: mustprogress uwtable
define hidden void @_ZN8facebook6hermes7tracing14TracingRuntime11getPropertyERKNS_3jsi6ObjectERKNS3_10PropNameIDE(ptr noalias sret(%"class.facebook::jsi::Value") align 8 %agg.result, ptr noundef nonnull align 8 dereferenceable(172) %this, ptr noundef nonnull align 8 dereferenceable(8) %obj, ptr noundef nonnull align 8 dereferenceable(8) %name) unnamed_addr #0 align 2 personality ptr @__gxx_personality_v0 {
entry:
  %result.ptr = alloca ptr, align 8
  %this.addr = alloca ptr, align 8
  %obj.addr = alloca ptr, align 8
  %name.addr = alloca ptr, align 8
  %nrvo = alloca i1, align 1
  %ref.tmp = alloca %"class.std::chrono::duration.37", align 8
  %exn.slot = alloca ptr, align 8
  %ehselector.slot = alloca i32, align 4
  %ref.tmp2 = alloca i64, align 8
  %ref.tmp5 = alloca %"class.facebook::hermes::tracing::SynthTrace::TraceValue", align 8
  %ref.tmp12 = alloca %"class.facebook::hermes::tracing::SynthTrace::TraceValue", align 8
  store ptr %agg.result, ptr %result.ptr, align 8
  store ptr %this, ptr %this.addr, align 8
  store ptr %obj, ptr %obj.addr, align 8
  store ptr %name, ptr %name.addr, align 8
  %this1 = load ptr, ptr %this.addr, align 8
  store i1 false, ptr %nrvo, align 1
  %0 = load ptr, ptr %obj.addr, align 8
  %1 = load ptr, ptr %name.addr, align 8
  call void @_ZN8facebook3jsi16RuntimeDecoratorINS0_7RuntimeES2_E11getPropertyERKNS0_6ObjectERKNS0_10PropNameIDE(ptr sret(%"class.facebook::jsi::Value") align 8 %agg.result, ptr noundef nonnull align 8 dereferenceable(24) %this1, ptr noundef nonnull align 8 dereferenceable(8) %0, ptr noundef nonnull align 8 dereferenceable(8) %1)
  %trace_ = getelementptr inbounds %"class.facebook::hermes::tracing::TracingRuntime", ptr %this1, i32 0, i32 2
  %call = invoke i64 @_ZNK8facebook6hermes7tracing14TracingRuntime17getTimeSinceStartEv(ptr noundef nonnull align 8 dereferenceable(172) %this1)
          to label %invoke.cont unwind label %lpad

invoke.cont:                                      ; preds = %entry
  %coerce.dive = getelementptr inbounds %"class.std::chrono::duration.37", ptr %ref.tmp, i32 0, i32 0
  store i64 %call, ptr %coerce.dive, align 8
  %2 = load ptr, ptr %obj.addr, align 8
  %vtable = load ptr, ptr %this1, align 8
  %vfn = getelementptr inbounds ptr, ptr %vtable, i64 83
  %3 = load ptr, ptr %vfn, align 8
  %call4 = invoke noundef i64 %3(ptr noundef nonnull align 8 dereferenceable(172) %this1, ptr noundef nonnull align 8 dereferenceable(8) %2)
          to label %invoke.cont3 unwind label %lpad

invoke.cont3:                                     ; preds = %invoke.cont
  store i64 %call4, ptr %ref.tmp2, align 8
  %4 = load ptr, ptr %name.addr, align 8
  %vtable6 = load ptr, ptr %this1, align 8
  %vfn7 = getelementptr inbounds ptr, ptr %vtable6, i64 86
  %5 = load ptr, ptr %vfn7, align 8
  %call9 = invoke noundef i64 %5(ptr noundef nonnull align 8 dereferenceable(172) %this1, ptr noundef nonnull align 8 dereferenceable(8) %4)
          to label %invoke.cont8 unwind label %lpad

invoke.cont8:                                     ; preds = %invoke.cont3
  %call11 = invoke { i32, i64 } @_ZN8facebook6hermes7tracing10SynthTrace16encodePropNameIDEm(i64 noundef %call9)
          to label %invoke.cont10 unwind label %lpad

invoke.cont10:                                    ; preds = %invoke.cont8
  %6 = getelementptr inbounds { i32, i64 }, ptr %ref.tmp5, i32 0, i32 0
  %7 = extractvalue { i32, i64 } %call11, 0
  store i32 %7, ptr %6, align 8
  %8 = getelementptr inbounds { i32, i64 }, ptr %ref.tmp5, i32 0, i32 1
  %9 = extractvalue { i32, i64 } %call11, 1
  store i64 %9, ptr %8, align 8
  %call14 = invoke { i32, i64 } @_ZN8facebook6hermes7tracing14TracingRuntime12toTraceValueERKNS_3jsi5ValueE(ptr noundef nonnull align 8 dereferenceable(172) %this1, ptr noundef nonnull align 8 dereferenceable(16) %agg.result)
          to label %invoke.cont13 unwind label %lpad

invoke.cont13:                                    ; preds = %invoke.cont10
  %10 = getelementptr inbounds { i32, i64 }, ptr %ref.tmp12, i32 0, i32 0
  %11 = extractvalue { i32, i64 } %call14, 0
  store i32 %11, ptr %10, align 8
  %12 = getelementptr inbounds { i32, i64 }, ptr %ref.tmp12, i32 0, i32 1
  %13 = extractvalue { i32, i64 } %call14, 1
  store i64 %13, ptr %12, align 8
  invoke void @_ZN8facebook6hermes7tracing10SynthTrace12emplace_backINS2_17GetPropertyRecordEJNSt6chrono8durationIlSt5ratioILl1ELl1000EEEEmNS2_10TraceValueESA_EEEvDpOT0_(ptr noundef nonnull align 8 dereferenceable(48) %trace_, ptr noundef nonnull align 8 dereferenceable(8) %ref.tmp, ptr noundef nonnull align 8 dereferenceable(8) %ref.tmp2, ptr noundef nonnull align 8 dereferenceable(16) %ref.tmp5, ptr noundef nonnull align 8 dereferenceable(16) %ref.tmp12)
          to label %invoke.cont15 unwind label %lpad

invoke.cont15:                                    ; preds = %invoke.cont13
  store i1 true, ptr %nrvo, align 1
  %nrvo.val = load i1, ptr %nrvo, align 1
  br i1 %nrvo.val, label %nrvo.skipdtor, label %nrvo.unused

lpad:                                             ; preds = %invoke.cont13, %invoke.cont10, %invoke.cont8, %invoke.cont3, %invoke.cont, %entry
  %14 = landingpad { ptr, i32 }
          cleanup
  %15 = extractvalue { ptr, i32 } %14, 0
  store ptr %15, ptr %exn.slot, align 8
  %16 = extractvalue { ptr, i32 } %14, 1
  store i32 %16, ptr %ehselector.slot, align 4
  call void @_ZN8facebook3jsi5ValueD1Ev(ptr noundef nonnull align 8 dereferenceable(16) %agg.result) #17
  br label %eh.resume

nrvo.unused:                                      ; preds = %invoke.cont15
  call void @_ZN8facebook3jsi5ValueD1Ev(ptr noundef nonnull align 8 dereferenceable(16) %agg.result) #17
  br label %nrvo.skipdtor

nrvo.skipdtor:                                    ; preds = %nrvo.unused, %invoke.cont15
  ret void

eh.resume:                                        ; preds = %lpad
  %exn = load ptr, ptr %exn.slot, align 8
  %sel = load i32, ptr %ehselector.slot, align 4
  %lpad.val = insertvalue { ptr, i32 } poison, ptr %exn, 0
  %lpad.val16 = insertvalue { ptr, i32 } %lpad.val, i32 %sel, 1
  resume { ptr, i32 } %lpad.val16
}