; Function Attrs: mustprogress uwtable
define hidden void @_ZN8facebook6hermes7tracing14TracingRuntime11getPropertyERKNS_3jsi6ObjectERKNS3_10PropNameIDE(ptr noalias sret(%"class.facebook::jsi::Value") align 8 %agg.result, ptr noundef nonnull align 8 dereferenceable(172) %this, ptr noundef nonnull align 8 dereferenceable(8) %obj, ptr noundef nonnull align 8 dereferenceable(8) %name) unnamed_addr #0 align 2 personality ptr @__gxx_personality_v0 {
invoke.cont:
  %ref.tmp = alloca %"class.std::chrono::duration.37", align 8
  %ref.tmp2 = alloca i64, align 8
  %ref.tmp5 = alloca %"class.facebook::hermes::tracing::SynthTrace::TraceValue", align 8
  %ref.tmp12 = alloca %"class.facebook::hermes::tracing::SynthTrace::TraceValue", align 8
  %plain_.i = getelementptr inbounds i8, ptr %this, i64 16
  %0 = load ptr, ptr %plain_.i, align 8, !noalias !202
  %vtable.i = load ptr, ptr %0, align 8, !noalias !202
  %vfn.i = getelementptr inbounds i8, ptr %vtable.i, i64 312
  %1 = load ptr, ptr %vfn.i, align 8, !noalias !202
  tail call void %1(ptr sret(%"class.facebook::jsi::Value") align 8 %agg.result, ptr noundef nonnull align 8 dereferenceable(8) %0, ptr noundef nonnull align 8 dereferenceable(8) %obj, ptr noundef nonnull align 8 dereferenceable(8) %name)
  %trace_ = getelementptr inbounds i8, ptr %this, i64 32
  %call.i = tail call i64 @_ZNSt6chrono3_V212steady_clock3nowEv() #27
  %startTime_.i = getelementptr inbounds i8, ptr %this, i64 160
  %retval.sroa.0.0.copyload.i1.i.i = load i64, ptr %startTime_.i, align 8
  %sub.i.i.i = sub nsw i64 %call.i, %retval.sroa.0.0.copyload.i1.i.i
  %div.i.i.i = sdiv i64 %sub.i.i.i, 1000000
  store i64 %div.i.i.i, ptr %ref.tmp, align 8
  %vtable = load ptr, ptr %this, align 8
  %vfn = getelementptr inbounds i8, ptr %vtable, i64 664
  %2 = load ptr, ptr %vfn, align 8
  %call4 = invoke noundef i64 %2(ptr noundef nonnull align 8 dereferenceable(172) %this, ptr noundef nonnull align 8 dereferenceable(8) %obj)
          to label %invoke.cont3 unwind label %lpad

invoke.cont3:                                     ; preds = %invoke.cont
  store i64 %call4, ptr %ref.tmp2, align 8
  %vtable6 = load ptr, ptr %this, align 8
  %vfn7 = getelementptr inbounds i8, ptr %vtable6, i64 688
  %3 = load ptr, ptr %vfn7, align 8
  %call9 = invoke noundef i64 %3(ptr noundef nonnull align 8 dereferenceable(172) %this, ptr noundef nonnull align 8 dereferenceable(8) %name)
          to label %invoke.cont8 unwind label %lpad

invoke.cont8:                                     ; preds = %invoke.cont3
  %call11 = invoke { i32, i64 } @_ZN8facebook6hermes7tracing10SynthTrace16encodePropNameIDEm(i64 noundef %call9)
          to label %invoke.cont10 unwind label %lpad

invoke.cont10:                                    ; preds = %invoke.cont8
  %4 = extractvalue { i32, i64 } %call11, 0
  store i32 %4, ptr %ref.tmp5, align 8
  %5 = getelementptr inbounds i8, ptr %ref.tmp5, i64 8
  %6 = extractvalue { i32, i64 } %call11, 1
  store i64 %6, ptr %5, align 8
  %call14 = invoke { i32, i64 } @_ZN8facebook6hermes7tracing14TracingRuntime12toTraceValueERKNS_3jsi5ValueE(ptr noundef nonnull align 8 dereferenceable(172) %this, ptr noundef nonnull align 8 dereferenceable(16) %agg.result)
          to label %invoke.cont13 unwind label %lpad

invoke.cont13:                                    ; preds = %invoke.cont10
  %7 = extractvalue { i32, i64 } %call14, 0
  store i32 %7, ptr %ref.tmp12, align 8
  %8 = getelementptr inbounds i8, ptr %ref.tmp12, i64 8
  %9 = extractvalue { i32, i64 } %call14, 1
  store i64 %9, ptr %8, align 8
  invoke void @_ZN8facebook6hermes7tracing10SynthTrace12emplace_backINS2_17GetPropertyRecordEJNSt6chrono8durationIlSt5ratioILl1ELl1000EEEEmNS2_10TraceValueESA_EEEvDpOT0_(ptr noundef nonnull align 8 dereferenceable(48) %trace_, ptr noundef nonnull align 8 dereferenceable(8) %ref.tmp, ptr noundef nonnull align 8 dereferenceable(8) %ref.tmp2, ptr noundef nonnull align 8 dereferenceable(16) %ref.tmp5, ptr noundef nonnull align 8 dereferenceable(16) %ref.tmp12)
          to label %nrvo.skipdtor unwind label %lpad

lpad:                                             ; preds = %invoke.cont13, %invoke.cont10, %invoke.cont8, %invoke.cont3, %invoke.cont
  %10 = landingpad { ptr, i32 }
          cleanup
  call void @_ZN8facebook3jsi5ValueD1Ev(ptr noundef nonnull align 8 dereferenceable(16) %agg.result) #27
  resume { ptr, i32 } %10

nrvo.skipdtor:                                    ; preds = %invoke.cont13
  ret void
}